target datalayout = "e-m:e-p270:32:32-p271:32:32-p272:64:64-i64:64-i128:128-f80:128-n8:16:32:64-S128"
target triple = "x86_64-pc-linux-gnu"

%struct.tng_atom = type { ptr, i64, ptr, ptr }
%struct.tng_molecule = type { i64, i64, i64, i64, i64, i64, ptr, ptr, ptr, ptr, ptr }
%struct.tng_chain = type { ptr, i64, ptr, i64, ptr }
%struct.tng_residue = type { ptr, i64, ptr, i64, i64 }

; Function Attrs: nounwind uwtable
define internal i32 @tng_atom_destroy(ptr noundef %0) #0 {
  %2 = alloca ptr, align 8
  store ptr %0, ptr %2, align 8, !tbaa !8
  %3 = load ptr, ptr %2, align 8, !tbaa !8
  %4 = getelementptr inbounds nuw %struct.tng_atom, ptr %3, i32 0, i32 3
  %5 = load ptr, ptr %4, align 8, !tbaa !22
  %6 = icmp ne ptr %5, null
  br i1 %6, label %7, label %13

7:                                                ; preds = %1
  %8 = load ptr, ptr %2, align 8, !tbaa !8
  %9 = getelementptr inbounds nuw %struct.tng_atom, ptr %8, i32 0, i32 3
  %10 = load ptr, ptr %9, align 8, !tbaa !22
  call void @free(ptr noundef %10) #11
  %11 = load ptr, ptr %2, align 8, !tbaa !8
  %12 = getelementptr inbounds nuw %struct.tng_atom, ptr %11, i32 0, i32 3
  store ptr null, ptr %12, align 8, !tbaa !22
  br label %13

13:                                               ; preds = %7, %1
  %14 = load ptr, ptr %2, align 8, !tbaa !8
  %15 = getelementptr inbounds nuw %struct.tng_atom, ptr %14, i32 0, i32 2
  %16 = load ptr, ptr %15, align 8, !tbaa !27
  %17 = icmp ne ptr %16, null
  br i1 %17, label %18, label %24

18:                                               ; preds = %13
  %19 = load ptr, ptr %2, align 8, !tbaa !8
  %20 = getelementptr inbounds nuw %struct.tng_atom, ptr %19, i32 0, i32 2
  %21 = load ptr, ptr %20, align 8, !tbaa !27
  call void @free(ptr noundef %21) #11
  %22 = load ptr, ptr %2, align 8, !tbaa !8
  %23 = getelementptr inbounds nuw %struct.tng_atom, ptr %22, i32 0, i32 2
  store ptr null, ptr %23, align 8, !tbaa !27
  br label %24

24:                                               ; preds = %18, %13
  ret i32 0
}

; Function Attrs: nounwind uwtable
define i32 @tng_molecule_destroy(ptr noundef %0, ptr noundef %1) #0 {
  %3 = alloca ptr, align 8
  %4 = alloca ptr, align 8
  %5 = alloca i64, align 8
  store ptr %0, ptr %3, align 8, !tbaa !3
  store ptr %1, ptr %4, align 8, !tbaa !45
  call void @llvm.lifetime.start.p0(i64 8, ptr %5) #11
  %6 = load ptr, ptr %4, align 8, !tbaa !45
  %7 = getelementptr inbounds nuw %struct.tng_molecule, ptr %6, i32 0, i32 6
  %8 = load ptr, ptr %7, align 8, !tbaa !49
  %9 = icmp ne ptr %8, null
  br i1 %9, label %10, label %16

10:                                               ; preds = %2
  %11 = load ptr, ptr %4, align 8, !tbaa !45
  %12 = getelementptr inbounds nuw %struct.tng_molecule, ptr %11, i32 0, i32 6
  %13 = load ptr, ptr %12, align 8, !tbaa !49
  call void @free(ptr noundef %13) #11
  %14 = load ptr, ptr %4, align 8, !tbaa !45
  %15 = getelementptr inbounds nuw %struct.tng_molecule, ptr %14, i32 0, i32 6
  store ptr null, ptr %15, align 8, !tbaa !49
  br label %16

16:                                               ; preds = %10, %2
  %17 = load ptr, ptr %4, align 8, !tbaa !45
  %18 = getelementptr inbounds nuw %struct.tng_molecule, ptr %17, i32 0, i32 7
  %19 = load ptr, ptr %18, align 8, !tbaa !51
  %20 = icmp ne ptr %19, null
  br i1 %20, label %21, label %61

21:                                               ; preds = %16
  store i64 0, ptr %5, align 8, !tbaa !26
  br label %22

22:                                               ; preds = %52, %21
  %23 = load i64, ptr %5, align 8, !tbaa !26
  %24 = load ptr, ptr %4, align 8, !tbaa !45
  %25 = getelementptr inbounds nuw %struct.tng_molecule, ptr %24, i32 0, i32 2
  %26 = load i64, ptr %25, align 8, !tbaa !50
  %27 = icmp slt i64 %23, %26
  br i1 %27, label %28, label %55

28:                                               ; preds = %22
  %29 = load ptr, ptr %4, align 8, !tbaa !45
  %30 = getelementptr inbounds nuw %struct.tng_molecule, ptr %29, i32 0, i32 7
  %31 = load ptr, ptr %30, align 8, !tbaa !51
  %32 = load i64, ptr %5, align 8, !tbaa !26
  %33 = getelementptr inbounds %struct.tng_chain, ptr %31, i64 %32
  %34 = getelementptr inbounds nuw %struct.tng_chain, ptr %33, i32 0, i32 2
  %35 = load ptr, ptr %34, align 8, !tbaa !70
  %36 = icmp ne ptr %35, null
  br i1 %36, label %37, label %51

37:                                               ; preds = %28
  %38 = load ptr, ptr %4, align 8, !tbaa !45
  %39 = getelementptr inbounds nuw %struct.tng_molecule, ptr %38, i32 0, i32 7
  %40 = load ptr, ptr %39, align 8, !tbaa !51
  %41 = load i64, ptr %5, align 8, !tbaa !26
  %42 = getelementptr inbounds %struct.tng_chain, ptr %40, i64 %41
  %43 = getelementptr inbounds nuw %struct.tng_chain, ptr %42, i32 0, i32 2
  %44 = load ptr, ptr %43, align 8, !tbaa !70
  call void @free(ptr noundef %44) #11
  %45 = load ptr, ptr %4, align 8, !tbaa !45
  %46 = getelementptr inbounds nuw %struct.tng_molecule, ptr %45, i32 0, i32 7
  %47 = load ptr, ptr %46, align 8, !tbaa !51
  %48 = load i64, ptr %5, align 8, !tbaa !26
  %49 = getelementptr inbounds %struct.tng_chain, ptr %47, i64 %48
  %50 = getelementptr inbounds nuw %struct.tng_chain, ptr %49, i32 0, i32 2
  store ptr null, ptr %50, align 8, !tbaa !70
  br label %51

51:                                               ; preds = %37, %28
  br label %52

52:                                               ; preds = %51
  %53 = load i64, ptr %5, align 8, !tbaa !26
  %54 = add nsw i64 %53, 1
  store i64 %54, ptr %5, align 8, !tbaa !26
  br label %22, !llvm.loop !87

55:                                               ; preds = %22
  %56 = load ptr, ptr %4, align 8, !tbaa !45
  %57 = getelementptr inbounds nuw %struct.tng_molecule, ptr %56, i32 0, i32 7
  %58 = load ptr, ptr %57, align 8, !tbaa !51
  call void @free(ptr noundef %58) #11
  %59 = load ptr, ptr %4, align 8, !tbaa !45
  %60 = getelementptr inbounds nuw %struct.tng_molecule, ptr %59, i32 0, i32 7
  store ptr null, ptr %60, align 8, !tbaa !51
  br label %61

61:                                               ; preds = %55, %16
  %62 = load ptr, ptr %4, align 8, !tbaa !45
  %63 = getelementptr inbounds nuw %struct.tng_molecule, ptr %62, i32 0, i32 2
  store i64 0, ptr %63, align 8, !tbaa !50
  %64 = load ptr, ptr %4, align 8, !tbaa !45
  %65 = getelementptr inbounds nuw %struct.tng_molecule, ptr %64, i32 0, i32 8
  %66 = load ptr, ptr %65, align 8, !tbaa !53
  %67 = icmp ne ptr %66, null
  br i1 %67, label %68, label %108

68:                                               ; preds = %61
  store i64 0, ptr %5, align 8, !tbaa !26
  br label %69

69:                                               ; preds = %99, %68
  %70 = load i64, ptr %5, align 8, !tbaa !26
  %71 = load ptr, ptr %4, align 8, !tbaa !45
  %72 = getelementptr inbounds nuw %struct.tng_molecule, ptr %71, i32 0, i32 3
  %73 = load i64, ptr %72, align 8, !tbaa !52
  %74 = icmp slt i64 %70, %73
  br i1 %74, label %75, label %102

75:                                               ; preds = %69
  %76 = load ptr, ptr %4, align 8, !tbaa !45
  %77 = getelementptr inbounds nuw %struct.tng_molecule, ptr %76, i32 0, i32 8
  %78 = load ptr, ptr %77, align 8, !tbaa !53
  %79 = load i64, ptr %5, align 8, !tbaa !26
  %80 = getelementptr inbounds %struct.tng_residue, ptr %78, i64 %79
  %81 = getelementptr inbounds nuw %struct.tng_residue, ptr %80, i32 0, i32 2
  %82 = load ptr, ptr %81, align 8, !tbaa !75
  %83 = icmp ne ptr %82, null
  br i1 %83, label %84, label %98

84:                                               ; preds = %75
  %85 = load ptr, ptr %4, align 8, !tbaa !45
  %86 = getelementptr inbounds nuw %struct.tng_molecule, ptr %85, i32 0, i32 8
  %87 = load ptr, ptr %86, align 8, !tbaa !53
  %88 = load i64, ptr %5, align 8, !tbaa !26
  %89 = getelementptr inbounds %struct.tng_residue, ptr %87, i64 %88
  %90 = getelementptr inbounds nuw %struct.tng_residue, ptr %89, i32 0, i32 2
  %91 = load ptr, ptr %90, align 8, !tbaa !75
  call void @free(ptr noundef %91) #11
  %92 = load ptr, ptr %4, align 8, !tbaa !45
  %93 = getelementptr inbounds nuw %struct.tng_molecule, ptr %92, i32 0, i32 8
  %94 = load ptr, ptr %93, align 8, !tbaa !53
  %95 = load i64, ptr %5, align 8, !tbaa !26
  %96 = getelementptr inbounds %struct.tng_residue, ptr %94, i64 %95
  %97 = getelementptr inbounds nuw %struct.tng_residue, ptr %96, i32 0, i32 2
  store ptr null, ptr %97, align 8, !tbaa !75
  br label %98

98:                                               ; preds = %84, %75
  br label %99

99:                                               ; preds = %98
  %100 = load i64, ptr %5, align 8, !tbaa !26
  %101 = add nsw i64 %100, 1
  store i64 %101, ptr %5, align 8, !tbaa !26
  br label %69, !llvm.loop !88

102:                                              ; preds = %69
  %103 = load ptr, ptr %4, align 8, !tbaa !45
  %104 = getelementptr inbounds nuw %struct.tng_molecule, ptr %103, i32 0, i32 8
  %105 = load ptr, ptr %104, align 8, !tbaa !53
  call void @free(ptr noundef %105) #11
  %106 = load ptr, ptr %4, align 8, !tbaa !45
  %107 = getelementptr inbounds nuw %struct.tng_molecule, ptr %106, i32 0, i32 8
  store ptr null, ptr %107, align 8, !tbaa !53
  br label %108

108:                                              ; preds = %102, %61
  %109 = load ptr, ptr %4, align 8, !tbaa !45
  %110 = getelementptr inbounds nuw %struct.tng_molecule, ptr %109, i32 0, i32 3
  store i64 0, ptr %110, align 8, !tbaa !52
  %111 = load ptr, ptr %4, align 8, !tbaa !45
  %112 = getelementptr inbounds nuw %struct.tng_molecule, ptr %111, i32 0, i32 9
  %113 = load ptr, ptr %112, align 8, !tbaa !55
  %114 = icmp ne ptr %113, null
  br i1 %114, label %115, label %138

115:                                              ; preds = %108
  store i64 0, ptr %5, align 8, !tbaa !26
  br label %116

116:                                              ; preds = %129, %115
  %117 = load i64, ptr %5, align 8, !tbaa !26
  %118 = load ptr, ptr %4, align 8, !tbaa !45
  %119 = getelementptr inbounds nuw %struct.tng_molecule, ptr %118, i32 0, i32 4
  %120 = load i64, ptr %119, align 8, !tbaa !54
  %121 = icmp slt i64 %117, %120
  br i1 %121, label %122, label %132

122:                                              ; preds = %116
  %123 = load ptr, ptr %4, align 8, !tbaa !45
  %124 = getelementptr inbounds nuw %struct.tng_molecule, ptr %123, i32 0, i32 9
  %125 = load ptr, ptr %124, align 8, !tbaa !55
  %126 = load i64, ptr %5, align 8, !tbaa !26
  %127 = getelementptr inbounds %struct.tng_atom, ptr %125, i64 %126
  %128 = call i32 @tng_atom_destroy(ptr noundef %127)
  br label %129

129:                                              ; preds = %122
  %130 = load i64, ptr %5, align 8, !tbaa !26
  %131 = add nsw i64 %130, 1
  store i64 %131, ptr %5, align 8, !tbaa !26
  br label %116, !llvm.loop !89

132:                                              ; preds = %116
  %133 = load ptr, ptr %4, align 8, !tbaa !45
  %134 = getelementptr inbounds nuw %struct.tng_molecule, ptr %133, i32 0, i32 9
  %135 = load ptr, ptr %134, align 8, !tbaa !55
  call void @free(ptr noundef %135) #11
  %136 = load ptr, ptr %4, align 8, !tbaa !45
  %137 = getelementptr inbounds nuw %struct.tng_molecule, ptr %136, i32 0, i32 9
  store ptr null, ptr %137, align 8, !tbaa !55
  br label %138

138:                                              ; preds = %132, %108
  %139 = load ptr, ptr %4, align 8, !tbaa !45
  %140 = getelementptr inbounds nuw %struct.tng_molecule, ptr %139, i32 0, i32 4
  store i64 0, ptr %140, align 8, !tbaa !54
  %141 = load ptr, ptr %4, align 8, !tbaa !45
  %142 = getelementptr inbounds nuw %struct.tng_molecule, ptr %141, i32 0, i32 10
  %143 = load ptr, ptr %142, align 8, !tbaa !57
  %144 = icmp ne ptr %143, null
  br i1 %144, label %145, label %151

145:                                              ; preds = %138
  %146 = load ptr, ptr %4, align 8, !tbaa !45
  %147 = getelementptr inbounds nuw %struct.tng_molecule, ptr %146, i32 0, i32 10
  %148 = load ptr, ptr %147, align 8, !tbaa !57
  call void @free(ptr noundef %148) #11
  %149 = load ptr, ptr %4, align 8, !tbaa !45
  %150 = getelementptr inbounds nuw %struct.tng_molecule, ptr %149, i32 0, i32 10
  store ptr null, ptr %150, align 8, !tbaa !57
  br label %151

151:                                              ; preds = %145, %138
  %152 = load ptr, ptr %4, align 8, !tbaa !45
  %153 = getelementptr inbounds nuw %struct.tng_molecule, ptr %152, i32 0, i32 5
  store i64 0, ptr %153, align 8, !tbaa !56
  call void @llvm.lifetime.end.p0(i64 8, ptr %5) #11
  ret i32 0
}