; Function Attrs: nounwind uwtable
define noundef i32 @tng_molecule_destroy(ptr readnone captures(none) %0, ptr noundef captures(none) %1) local_unnamed_addr #4 {
  %3 = getelementptr inbounds nuw i8, ptr %1, i64 48
  %4 = load ptr, ptr %3, align 8, !tbaa !37
  %.not = icmp eq ptr %4, null
  br i1 %.not, label %6, label %5

5:                                                ; preds = %2
  tail call void @free(ptr noundef nonnull %4) #26
  store ptr null, ptr %3, align 8, !tbaa !37
  br label %6

6:                                                ; preds = %5, %2
  %7 = getelementptr inbounds nuw i8, ptr %1, i64 56
  %8 = load ptr, ptr %7, align 8, !tbaa !55
  %.not45 = icmp eq ptr %8, null
  br i1 %.not45, label %25, label %.preheader52

.preheader52:                                     ; preds = %6
  %9 = getelementptr inbounds nuw i8, ptr %1, i64 16
  %10 = load i64, ptr %9, align 8, !tbaa !54
  %11 = icmp sgt i64 %10, 0
  br i1 %11, label %.lr.ph, label %._crit_edge

.lr.ph:                                           ; preds = %.preheader52, %19
  %12 = phi i64 [ %20, %19 ], [ %10, %.preheader52 ]
  %13 = phi ptr [ %21, %19 ], [ %8, %.preheader52 ]
  %.053 = phi i64 [ %22, %19 ], [ 0, %.preheader52 ]
  %14 = getelementptr inbounds nuw %struct.tng_chain, ptr %13, i64 %.053, i32 2
  %15 = load ptr, ptr %14, align 8, !tbaa !56
  %.not50 = icmp eq ptr %15, null
  br i1 %.not50, label %19, label %16

16:                                               ; preds = %.lr.ph
  tail call void @free(ptr noundef nonnull %15) #26
  %17 = load ptr, ptr %7, align 8, !tbaa !55
  %18 = getelementptr inbounds nuw %struct.tng_chain, ptr %17, i64 %.053, i32 2
  store ptr null, ptr %18, align 8, !tbaa !56
  %.pre = load i64, ptr %9, align 8, !tbaa !54
  br label %19

19:                                               ; preds = %.lr.ph, %16
  %20 = phi i64 [ %12, %.lr.ph ], [ %.pre, %16 ]
  %21 = phi ptr [ %13, %.lr.ph ], [ %17, %16 ]
  %22 = add nuw nsw i64 %.053, 1
  %23 = icmp slt i64 %22, %20
  br i1 %23, label %.lr.ph, label %._crit_edge, !llvm.loop !76

._crit_edge:                                      ; preds = %19, %.preheader52
  %24 = phi ptr [ %8, %.preheader52 ], [ %21, %19 ]
  tail call void @free(ptr noundef nonnull %24) #26
  store ptr null, ptr %7, align 8, !tbaa !55
  br label %25

25:                                               ; preds = %._crit_edge, %6
  %26 = getelementptr inbounds nuw i8, ptr %1, i64 16
  store i64 0, ptr %26, align 8, !tbaa !54
  %27 = getelementptr inbounds nuw i8, ptr %1, i64 64
  %28 = load ptr, ptr %27, align 8, !tbaa !77
  %.not46 = icmp eq ptr %28, null
  br i1 %.not46, label %45, label %.preheader51

.preheader51:                                     ; preds = %25
  %29 = getelementptr inbounds nuw i8, ptr %1, i64 24
  %30 = load i64, ptr %29, align 8, !tbaa !78
  %31 = icmp sgt i64 %30, 0
  br i1 %31, label %.lr.ph55, label %._crit_edge56

.lr.ph55:                                         ; preds = %.preheader51, %39
  %32 = phi i64 [ %40, %39 ], [ %30, %.preheader51 ]
  %33 = phi ptr [ %41, %39 ], [ %28, %.preheader51 ]
  %.154 = phi i64 [ %42, %39 ], [ 0, %.preheader51 ]
  %34 = getelementptr inbounds nuw %struct.tng_residue, ptr %33, i64 %.154, i32 2
  %35 = load ptr, ptr %34, align 8, !tbaa !61
  %.not49 = icmp eq ptr %35, null
  br i1 %.not49, label %39, label %36

36:                                               ; preds = %.lr.ph55
  tail call void @free(ptr noundef nonnull %35) #26
  %37 = load ptr, ptr %27, align 8, !tbaa !77
  %38 = getelementptr inbounds nuw %struct.tng_residue, ptr %37, i64 %.154, i32 2
  store ptr null, ptr %38, align 8, !tbaa !61
  %.pre60 = load i64, ptr %29, align 8, !tbaa !78
  br label %39

39:                                               ; preds = %.lr.ph55, %36
  %40 = phi i64 [ %32, %.lr.ph55 ], [ %.pre60, %36 ]
  %41 = phi ptr [ %33, %.lr.ph55 ], [ %37, %36 ]
  %42 = add nuw nsw i64 %.154, 1
  %43 = icmp slt i64 %42, %40
  br i1 %43, label %.lr.ph55, label %._crit_edge56, !llvm.loop !79

._crit_edge56:                                    ; preds = %39, %.preheader51
  %44 = phi ptr [ %28, %.preheader51 ], [ %41, %39 ]
  tail call void @free(ptr noundef nonnull %44) #26
  store ptr null, ptr %27, align 8, !tbaa !77
  br label %45

45:                                               ; preds = %._crit_edge56, %25
  %46 = getelementptr inbounds nuw i8, ptr %1, i64 24
  store i64 0, ptr %46, align 8, !tbaa !78
  %47 = getelementptr inbounds nuw i8, ptr %1, i64 72
  %48 = load ptr, ptr %47, align 8, !tbaa !66
  %.not47 = icmp eq ptr %48, null
  br i1 %.not47, label %65, label %.preheader

.preheader:                                       ; preds = %45
  %49 = getelementptr inbounds nuw i8, ptr %1, i64 32
  %50 = load i64, ptr %49, align 8, !tbaa !48
  %51 = icmp sgt i64 %50, 0
  br i1 %51, label %.lr.ph58, label %._crit_edge59

.lr.ph58:                                         ; preds = %.preheader, %tng_atom_destroy.exit
  %.257 = phi i64 [ %61, %tng_atom_destroy.exit ], [ 0, %.preheader ]
  %52 = load ptr, ptr %47, align 8, !tbaa !66
  %53 = getelementptr inbounds nuw %struct.tng_atom, ptr %52, i64 %.257
  %54 = getelementptr inbounds nuw i8, ptr %53, i64 24
  %55 = load ptr, ptr %54, align 8, !tbaa !12
  %.not.i = icmp eq ptr %55, null
  br i1 %.not.i, label %57, label %56

56:                                               ; preds = %.lr.ph58
  tail call void @free(ptr noundef nonnull %55) #26
  store ptr null, ptr %54, align 8, !tbaa !12
  br label %57

57:                                               ; preds = %56, %.lr.ph58
  %58 = getelementptr inbounds nuw i8, ptr %53, i64 16
  %59 = load ptr, ptr %58, align 8, !tbaa !16
  %.not7.i = icmp eq ptr %59, null
  br i1 %.not7.i, label %tng_atom_destroy.exit, label %60

60:                                               ; preds = %57
  tail call void @free(ptr noundef nonnull %59) #26
  store ptr null, ptr %58, align 8, !tbaa !16
  br label %tng_atom_destroy.exit

tng_atom_destroy.exit:                            ; preds = %57, %60
  %61 = add nuw nsw i64 %.257, 1
  %62 = load i64, ptr %49, align 8, !tbaa !48
  %63 = icmp slt i64 %61, %62
  br i1 %63, label %.lr.ph58, label %._crit_edge59.loopexit, !llvm.loop !80

._crit_edge59.loopexit:                           ; preds = %tng_atom_destroy.exit
  %.pre61 = load ptr, ptr %47, align 8, !tbaa !66
  br label %._crit_edge59

._crit_edge59:                                    ; preds = %._crit_edge59.loopexit, %.preheader
  %64 = phi ptr [ %.pre61, %._crit_edge59.loopexit ], [ %48, %.preheader ]
  tail call void @free(ptr noundef %64) #26
  store ptr null, ptr %47, align 8, !tbaa !66
  br label %65

65:                                               ; preds = %._crit_edge59, %45
  %66 = getelementptr inbounds nuw i8, ptr %1, i64 32
  store i64 0, ptr %66, align 8, !tbaa !48
  %67 = getelementptr inbounds nuw i8, ptr %1, i64 80
  %68 = load ptr, ptr %67, align 8, !tbaa !72
  %.not48 = icmp eq ptr %68, null
  br i1 %.not48, label %70, label %69

69:                                               ; preds = %65
  tail call void @free(ptr noundef nonnull %68) #26
  store ptr null, ptr %67, align 8, !tbaa !72
  br label %70

70:                                               ; preds = %69, %65
  %71 = getelementptr inbounds nuw i8, ptr %1, i64 40
  store i64 0, ptr %71, align 8, !tbaa !71
  ret i32 0
}